target datalayout = "e-m:e-p270:32:32-p271:32:32-p272:64:64-i64:64-i128:128-f80:128-n8:16:32:64-S128"
target triple = "x86_64-pc-linux-gnu"

; Function Attrs: mustprogress nounwind uwtable
define hidden noundef i32 @_ZN8JvmtiEnv14SetVerboseFlagE16jvmtiVerboseFlagh(ptr noundef nonnull align 8 dereferenceable(460) %0, i32 noundef %1, i8 noundef zeroext %2) #1 align 2 {
  %4 = alloca i32, align 4
  %5 = alloca ptr, align 8
  %6 = alloca i32, align 4
  %7 = alloca i8, align 1
  %8 = alloca i32, align 4
  store ptr %0, ptr %5, align 8
  store i32 %1, ptr %6, align 4
  store i8 %2, ptr %7, align 1
  %9 = load i8, ptr %7, align 1
  %10 = zext i8 %9 to i32
  %11 = icmp eq i32 %10, 0
  %12 = select i1 %11, i32 0, i32 3
  store i32 %12, ptr %8, align 4
  %13 = load i32, ptr %6, align 4
  switch i32 %13, label %26 [
    i32 0, label %14
    i32 2, label %15
    i32 1, label %18
    i32 4, label %20
  ]

14:                                               ; preds = %3
  br label %27

15:                                               ; preds = %3
  %16 = load i32, ptr %8, align 4
  call void (i32, i32, ...) @_ZN16LogConfiguration16configure_stdoutEN8LogLevel4typeEiz(i32 noundef %16, i32 noundef 0, i32 noundef 16, i32 noundef 165, i32 noundef 0, i32 noundef 0, i32 noundef 0, i32 noundef 0)
  %17 = load i32, ptr %8, align 4
  call void (i32, i32, ...) @_ZN16LogConfiguration16configure_stdoutEN8LogLevel4typeEiz(i32 noundef %17, i32 noundef 0, i32 noundef 16, i32 noundef 74, i32 noundef 0, i32 noundef 0, i32 noundef 0, i32 noundef 0)
  br label %27

18:                                               ; preds = %3
  %19 = load i32, ptr %8, align 4
  call void (i32, i32, ...) @_ZN16LogConfiguration16configure_stdoutEN8LogLevel4typeEiz(i32 noundef %19, i32 noundef 1, i32 noundef 49, i32 noundef 0, i32 noundef 0, i32 noundef 0, i32 noundef 0, i32 noundef 0)
  br label %27

20:                                               ; preds = %3
  %21 = load i8, ptr %7, align 1
  %22 = zext i8 %21 to i32
  %23 = icmp eq i32 %22, 0
  %24 = select i1 %23, i32 0, i32 2
  store i32 %24, ptr %8, align 4
  %25 = load i32, ptr %8, align 4
  call void (i32, i32, ...) @_ZN16LogConfiguration16configure_stdoutEN8LogLevel4typeEiz(i32 noundef %25, i32 noundef 1, i32 noundef 67, i32 noundef 131, i32 noundef 0, i32 noundef 0, i32 noundef 0, i32 noundef 0)
  br label %27

26:                                               ; preds = %3
  store i32 103, ptr %4, align 4
  br label %28

27:                                               ; preds = %20, %18, %15, %14
  store i32 0, ptr %4, align 4
  br label %28

28:                                               ; preds = %27, %26
  %29 = load i32, ptr %4, align 4
  ret i32 %29
}