; Function Attrs: mustprogress nounwind uwtable
define hidden noundef range(i32 0, 104) i32 @_ZN8JvmtiEnv14SetVerboseFlagE16jvmtiVerboseFlagh(ptr nocapture noundef nonnull readnone align 8 dereferenceable(460) %0, i32 noundef %1, i8 noundef zeroext %2) local_unnamed_addr #0 align 2 {
  %4 = icmp eq i8 %2, 0
  %5 = select i1 %4, i32 0, i32 3
  switch i32 %1, label %11 [
    i32 0, label %10
    i32 2, label %6
    i32 1, label %7
    i32 4, label %8
  ]

6:                                                ; preds = %3
  tail call void (i32, i32, ...) @_ZN16LogConfiguration16configure_stdoutEN8LogLevel4typeEiz(i32 noundef %5, i32 noundef 0, i32 noundef 16, i32 noundef 165, i32 noundef 0, i32 noundef 0, i32 noundef 0, i32 noundef 0) #17
  tail call void (i32, i32, ...) @_ZN16LogConfiguration16configure_stdoutEN8LogLevel4typeEiz(i32 noundef %5, i32 noundef 0, i32 noundef 16, i32 noundef 74, i32 noundef 0, i32 noundef 0, i32 noundef 0, i32 noundef 0) #17
  br label %10

7:                                                ; preds = %3
  tail call void (i32, i32, ...) @_ZN16LogConfiguration16configure_stdoutEN8LogLevel4typeEiz(i32 noundef %5, i32 noundef 1, i32 noundef 49, i32 noundef 0, i32 noundef 0, i32 noundef 0, i32 noundef 0, i32 noundef 0) #17
  br label %10

8:                                                ; preds = %3
  %9 = select i1 %4, i32 0, i32 2
  tail call void (i32, i32, ...) @_ZN16LogConfiguration16configure_stdoutEN8LogLevel4typeEiz(i32 noundef %9, i32 noundef 1, i32 noundef 67, i32 noundef 131, i32 noundef 0, i32 noundef 0, i32 noundef 0, i32 noundef 0) #17
  br label %10

10:                                               ; preds = %3, %8, %7, %6
  br label %11

11:                                               ; preds = %3, %10
  %.0 = phi i32 [ 0, %10 ], [ 103, %3 ]
  ret i32 %.0
}